
_seqdec_prio:     file format elf32-i386


Disassembly of section .text:

00000000 <main>:
            for (j = 0; j < 1024 * 10; j++)
                data[j]++;
    }
}
int main(int argc, char *argv[])
{
   0:	8d 4c 24 04          	lea    0x4(%esp),%ecx
   4:	83 e4 f0             	and    $0xfffffff0,%esp
   7:	ff 71 fc             	pushl  -0x4(%ecx)
   a:	55                   	push   %ebp
   b:	89 e5                	mov    %esp,%ebp
   d:	57                   	push   %edi
   e:	56                   	push   %esi
   f:	53                   	push   %ebx
  10:	51                   	push   %ecx
  11:	83 ec 18             	sub    $0x18,%esp
    if (argc < 2)
  14:	83 39 01             	cmpl   $0x1,(%ecx)
{
  17:	8b 41 04             	mov    0x4(%ecx),%eax
    if (argc < 2)
  1a:	0f 8e 98 00 00 00    	jle    b8 <main+0xb8>
    {
        printf(1, "test-case <number-of-children>\n");
        exit();
    }
    int N = atoi(argv[1]);
  20:	83 ec 0c             	sub    $0xc,%esp
  23:	ff 70 04             	pushl  0x4(%eax)
  26:	e8 c5 03 00 00       	call   3f0 <atoi>

    int pids[N];
  2b:	8d 1c 85 00 00 00 00 	lea    0x0(,%eax,4),%ebx
    int N = atoi(argv[1]);
  32:	89 c6                	mov    %eax,%esi
    int pids[N];
  34:	83 c4 10             	add    $0x10,%esp
  37:	8d 43 12             	lea    0x12(%ebx),%eax
  3a:	83 e0 f0             	and    $0xfffffff0,%eax
  3d:	29 c4                	sub    %eax,%esp
  3f:	89 65 e4             	mov    %esp,-0x1c(%ebp)
    int rets[N];
  42:	29 c4                	sub    %eax,%esp
  44:	89 65 e0             	mov    %esp,-0x20(%ebp)
    set_prio(1000);
  47:	83 ec 0c             	sub    $0xc,%esp
  4a:	68 e8 03 00 00       	push   $0x3e8
  4f:	e8 d6 04 00 00       	call   52a <set_prio>
    printf(1, "Priority of parent process = %d\n", get_prio());
  54:	e8 d9 04 00 00       	call   532 <get_prio>
  59:	83 c4 0c             	add    $0xc,%esp
  5c:	50                   	push   %eax
  5d:	68 c0 09 00 00       	push   $0x9c0
  62:	6a 01                	push   $0x1
  64:	e8 77 05 00 00       	call   5e0 <printf>

    for (int i = 0; i < N; i++)
  69:	83 c4 10             	add    $0x10,%esp
  6c:	85 f6                	test   %esi,%esi
  6e:	0f 8e fc 00 00 00    	jle    170 <main+0x170>
  74:	31 ff                	xor    %edi,%edi
  76:	eb 17                	jmp    8f <main+0x8f>
  78:	90                   	nop
  79:	8d b4 26 00 00 00 00 	lea    0x0(%esi,%eiz,1),%esi
        {
            set_prio(priority);
            delay(20);
            exit();
        }
        else if (ret > 0)
  80:	7e 49                	jle    cb <main+0xcb>
        {
            pids[i] = ret;
  82:	8b 55 e4             	mov    -0x1c(%ebp),%edx
  85:	89 04 ba             	mov    %eax,(%edx,%edi,4)
    for (int i = 0; i < N; i++)
  88:	83 c7 01             	add    $0x1,%edi
  8b:	39 fe                	cmp    %edi,%esi
  8d:	74 4f                	je     de <main+0xde>
        int ret = fork();
  8f:	e8 c6 03 00 00       	call   45a <fork>
        if (ret == 0)
  94:	83 f8 00             	cmp    $0x0,%eax
  97:	75 e7                	jne    80 <main+0x80>
      int priority = 10*(N - i);
  99:	29 fe                	sub    %edi,%esi
            set_prio(priority);
  9b:	83 ec 0c             	sub    $0xc,%esp
      int priority = 10*(N - i);
  9e:	6b f6 0a             	imul   $0xa,%esi,%esi
            set_prio(priority);
  a1:	56                   	push   %esi
  a2:	e8 83 04 00 00       	call   52a <set_prio>
            delay(20);
  a7:	c7 04 24 14 00 00 00 	movl   $0x14,(%esp)
  ae:	e8 ed 00 00 00       	call   1a0 <delay>
            exit();
  b3:	e8 aa 03 00 00       	call   462 <exit>
        printf(1, "test-case <number-of-children>\n");
  b8:	50                   	push   %eax
  b9:	50                   	push   %eax
  ba:	68 a0 09 00 00       	push   $0x9a0
  bf:	6a 01                	push   $0x1
  c1:	e8 1a 05 00 00       	call   5e0 <printf>
        exit();
  c6:	e8 97 03 00 00       	call   462 <exit>
        }
        else
        {
            printf(1, "fork error \n");
  cb:	57                   	push   %edi
  cc:	57                   	push   %edi
  cd:	68 55 09 00 00       	push   $0x955
  d2:	6a 01                	push   $0x1
  d4:	e8 07 05 00 00       	call   5e0 <printf>
            exit();
  d9:	e8 84 03 00 00       	call   462 <exit>
  de:	8b 75 e0             	mov    -0x20(%ebp),%esi
  e1:	8d 04 1e             	lea    (%esi,%ebx,1),%eax
    for (int i = 0; i < N; i++)
  e4:	89 f3                	mov    %esi,%ebx
  e6:	89 45 e0             	mov    %eax,-0x20(%ebp)
  e9:	8d b4 26 00 00 00 00 	lea    0x0(%esi,%eiz,1),%esi
        }
    }

    for (int i = 0; i < N; i++)
    {
        rets[i] = wait();
  f0:	e8 75 03 00 00       	call   46a <wait>
  f5:	83 c3 04             	add    $0x4,%ebx
  f8:	89 43 fc             	mov    %eax,-0x4(%ebx)
    for (int i = 0; i < N; i++)
  fb:	3b 5d e0             	cmp    -0x20(%ebp),%ebx
  fe:	75 f0                	jne    f0 <main+0xf0>
    }

    printf(1, "\nAll children completed\n");
 100:	52                   	push   %edx
 101:	52                   	push   %edx
 102:	68 62 09 00 00       	push   $0x962
 107:	6a 01                	push   $0x1
 109:	e8 d2 04 00 00       	call   5e0 <printf>
 10e:	83 c4 10             	add    $0x10,%esp
 111:	31 c0                	xor    %eax,%eax
 113:	90                   	nop
 114:	8d 74 26 00          	lea    0x0(%esi,%eiz,1),%esi
    for (int i = 0; i < N; i++)
        printf(1, "Child %d.    pid %d\n", i, pids[i]);
 118:	8b 4d e4             	mov    -0x1c(%ebp),%ecx
 11b:	89 45 e0             	mov    %eax,-0x20(%ebp)
 11e:	ff 34 81             	pushl  (%ecx,%eax,4)
 121:	50                   	push   %eax
 122:	68 89 09 00 00       	push   $0x989
 127:	6a 01                	push   $0x1
 129:	e8 b2 04 00 00       	call   5e0 <printf>
    for (int i = 0; i < N; i++)
 12e:	8b 45 e0             	mov    -0x20(%ebp),%eax
 131:	83 c4 10             	add    $0x10,%esp
 134:	83 c0 01             	add    $0x1,%eax
 137:	39 f8                	cmp    %edi,%eax
 139:	75 dd                	jne    118 <main+0x118>

    printf(1, "\nExit order \n");
 13b:	50                   	push   %eax
 13c:	50                   	push   %eax
 13d:	68 7b 09 00 00       	push   $0x97b
 142:	6a 01                	push   $0x1
 144:	e8 97 04 00 00       	call   5e0 <printf>
 149:	83 c4 10             	add    $0x10,%esp
 14c:	8d 74 26 00          	lea    0x0(%esi,%eiz,1),%esi
    for (int i = 0; i < N; i++)
        printf(1, "pid %d\n", rets[i]);
 150:	83 ec 04             	sub    $0x4,%esp
 153:	ff 36                	pushl  (%esi)
 155:	83 c6 04             	add    $0x4,%esi
 158:	68 96 09 00 00       	push   $0x996
 15d:	6a 01                	push   $0x1
 15f:	e8 7c 04 00 00       	call   5e0 <printf>
    for (int i = 0; i < N; i++)
 164:	83 c4 10             	add    $0x10,%esp
 167:	39 f3                	cmp    %esi,%ebx
 169:	75 e5                	jne    150 <main+0x150>

    exit();
 16b:	e8 f2 02 00 00       	call   462 <exit>
    printf(1, "\nAll children completed\n");
 170:	51                   	push   %ecx
 171:	51                   	push   %ecx
 172:	68 62 09 00 00       	push   $0x962
 177:	6a 01                	push   $0x1
 179:	e8 62 04 00 00       	call   5e0 <printf>
    printf(1, "\nExit order \n");
 17e:	5b                   	pop    %ebx
 17f:	5e                   	pop    %esi
 180:	68 7b 09 00 00       	push   $0x97b
 185:	6a 01                	push   $0x1
 187:	e8 54 04 00 00       	call   5e0 <printf>
 18c:	83 c4 10             	add    $0x10,%esp
 18f:	eb da                	jmp    16b <main+0x16b>
 191:	66 90                	xchg   %ax,%ax
 193:	66 90                	xchg   %ax,%ax
 195:	66 90                	xchg   %ax,%ax
 197:	66 90                	xchg   %ax,%ax
 199:	66 90                	xchg   %ax,%ax
 19b:	66 90                	xchg   %ax,%ax
 19d:	66 90                	xchg   %ax,%ax
 19f:	90                   	nop

000001a0 <delay>:
{
 1a0:	55                   	push   %ebp
 1a1:	89 e5                	mov    %esp,%ebp
 1a3:	57                   	push   %edi
 1a4:	56                   	push   %esi
 1a5:	53                   	push   %ebx
 1a6:	83 ec 18             	sub    $0x18,%esp
 1a9:	8b 7d 08             	mov    0x8(%ebp),%edi
    data = (int *)malloc(sizeof(int) * 1024 * 10);
 1ac:	68 00 a0 00 00       	push   $0xa000
 1b1:	e8 8a 06 00 00       	call   840 <malloc>
    if (data <= 0)
 1b6:	83 c4 10             	add    $0x10,%esp
 1b9:	85 c0                	test   %eax,%eax
    data = (int *)malloc(sizeof(int) * 1024 * 10);
 1bb:	89 c3                	mov    %eax,%ebx
    if (data <= 0)
 1bd:	75 12                	jne    1d1 <delay+0x31>
        printf(1, "Error on memory allocation \n");
 1bf:	83 ec 08             	sub    $0x8,%esp
 1c2:	68 38 09 00 00       	push   $0x938
 1c7:	6a 01                	push   $0x1
 1c9:	e8 12 04 00 00       	call   5e0 <printf>
 1ce:	83 c4 10             	add    $0x10,%esp
    for (i = 0; i < count; i++)
 1d1:	31 f6                	xor    %esi,%esi
 1d3:	85 ff                	test   %edi,%edi
 1d5:	8d 8b 00 a0 00 00    	lea    0xa000(%ebx),%ecx
 1db:	7e 29                	jle    206 <delay+0x66>
{
 1dd:	b8 44 16 00 00       	mov    $0x1644,%eax
 1e2:	8d b6 00 00 00 00    	lea    0x0(%esi),%esi
 1e8:	89 da                	mov    %ebx,%edx
 1ea:	8d b6 00 00 00 00    	lea    0x0(%esi),%esi
                data[j]++;
 1f0:	83 02 01             	addl   $0x1,(%edx)
 1f3:	83 c2 04             	add    $0x4,%edx
            for (j = 0; j < 1024 * 10; j++)
 1f6:	39 ca                	cmp    %ecx,%edx
 1f8:	75 f6                	jne    1f0 <delay+0x50>
        for (k = 0; k < 5700; k++)
 1fa:	83 e8 01             	sub    $0x1,%eax
 1fd:	75 e9                	jne    1e8 <delay+0x48>
    for (i = 0; i < count; i++)
 1ff:	83 c6 01             	add    $0x1,%esi
 202:	39 f7                	cmp    %esi,%edi
 204:	75 d7                	jne    1dd <delay+0x3d>
}
 206:	8d 65 f4             	lea    -0xc(%ebp),%esp
 209:	5b                   	pop    %ebx
 20a:	5e                   	pop    %esi
 20b:	5f                   	pop    %edi
 20c:	5d                   	pop    %ebp
 20d:	c3                   	ret    
 20e:	66 90                	xchg   %ax,%ax

00000210 <strcpy>:
#include "user.h"
#include "x86.h"

char*
strcpy(char *s, const char *t)
{
 210:	55                   	push   %ebp
 211:	89 e5                	mov    %esp,%ebp
 213:	53                   	push   %ebx
 214:	8b 45 08             	mov    0x8(%ebp),%eax
 217:	8b 4d 0c             	mov    0xc(%ebp),%ecx
  char *os;

  os = s;
  while((*s++ = *t++) != 0)
 21a:	89 c2                	mov    %eax,%edx
 21c:	8d 74 26 00          	lea    0x0(%esi,%eiz,1),%esi
 220:	83 c1 01             	add    $0x1,%ecx
 223:	0f b6 59 ff          	movzbl -0x1(%ecx),%ebx
 227:	83 c2 01             	add    $0x1,%edx
 22a:	84 db                	test   %bl,%bl
 22c:	88 5a ff             	mov    %bl,-0x1(%edx)
 22f:	75 ef                	jne    220 <strcpy+0x10>
    ;
  return os;
}
 231:	5b                   	pop    %ebx
 232:	5d                   	pop    %ebp
 233:	c3                   	ret    
 234:	8d b6 00 00 00 00    	lea    0x0(%esi),%esi
 23a:	8d bf 00 00 00 00    	lea    0x0(%edi),%edi

00000240 <strcmp>:

int
strcmp(const char *p, const char *q)
{
 240:	55                   	push   %ebp
 241:	89 e5                	mov    %esp,%ebp
 243:	53                   	push   %ebx
 244:	8b 55 08             	mov    0x8(%ebp),%edx
 247:	8b 4d 0c             	mov    0xc(%ebp),%ecx
  while(*p && *p == *q)
 24a:	0f b6 02             	movzbl (%edx),%eax
 24d:	0f b6 19             	movzbl (%ecx),%ebx
 250:	84 c0                	test   %al,%al
 252:	75 1c                	jne    270 <strcmp+0x30>
 254:	eb 2a                	jmp    280 <strcmp+0x40>
 256:	8d 76 00             	lea    0x0(%esi),%esi
 259:	8d bc 27 00 00 00 00 	lea    0x0(%edi,%eiz,1),%edi
    p++, q++;
 260:	83 c2 01             	add    $0x1,%edx
  while(*p && *p == *q)
 263:	0f b6 02             	movzbl (%edx),%eax
    p++, q++;
 266:	83 c1 01             	add    $0x1,%ecx
 269:	0f b6 19             	movzbl (%ecx),%ebx
  while(*p && *p == *q)
 26c:	84 c0                	test   %al,%al
 26e:	74 10                	je     280 <strcmp+0x40>
 270:	38 d8                	cmp    %bl,%al
 272:	74 ec                	je     260 <strcmp+0x20>
  return (uchar)*p - (uchar)*q;
 274:	29 d8                	sub    %ebx,%eax
}
 276:	5b                   	pop    %ebx
 277:	5d                   	pop    %ebp
 278:	c3                   	ret    
 279:	8d b4 26 00 00 00 00 	lea    0x0(%esi,%eiz,1),%esi
 280:	31 c0                	xor    %eax,%eax
  return (uchar)*p - (uchar)*q;
 282:	29 d8                	sub    %ebx,%eax
}
 284:	5b                   	pop    %ebx
 285:	5d                   	pop    %ebp
 286:	c3                   	ret    
 287:	89 f6                	mov    %esi,%esi
 289:	8d bc 27 00 00 00 00 	lea    0x0(%edi,%eiz,1),%edi

00000290 <strlen>:

uint
strlen(const char *s)
{
 290:	55                   	push   %ebp
 291:	89 e5                	mov    %esp,%ebp
 293:	8b 4d 08             	mov    0x8(%ebp),%ecx
  int n;

  for(n = 0; s[n]; n++)
 296:	80 39 00             	cmpb   $0x0,(%ecx)
 299:	74 15                	je     2b0 <strlen+0x20>
 29b:	31 d2                	xor    %edx,%edx
 29d:	8d 76 00             	lea    0x0(%esi),%esi
 2a0:	83 c2 01             	add    $0x1,%edx
 2a3:	80 3c 11 00          	cmpb   $0x0,(%ecx,%edx,1)
 2a7:	89 d0                	mov    %edx,%eax
 2a9:	75 f5                	jne    2a0 <strlen+0x10>
    ;
  return n;
}
 2ab:	5d                   	pop    %ebp
 2ac:	c3                   	ret    
 2ad:	8d 76 00             	lea    0x0(%esi),%esi
  for(n = 0; s[n]; n++)
 2b0:	31 c0                	xor    %eax,%eax
}
 2b2:	5d                   	pop    %ebp
 2b3:	c3                   	ret    
 2b4:	8d b6 00 00 00 00    	lea    0x0(%esi),%esi
 2ba:	8d bf 00 00 00 00    	lea    0x0(%edi),%edi

000002c0 <memset>:

void*
memset(void *dst, int c, uint n)
{
 2c0:	55                   	push   %ebp
 2c1:	89 e5                	mov    %esp,%ebp
 2c3:	57                   	push   %edi
 2c4:	8b 55 08             	mov    0x8(%ebp),%edx
}

static inline void
stosb(void *addr, int data, int cnt)
{
  asm volatile("cld; rep stosb" :
 2c7:	8b 4d 10             	mov    0x10(%ebp),%ecx
 2ca:	8b 45 0c             	mov    0xc(%ebp),%eax
 2cd:	89 d7                	mov    %edx,%edi
 2cf:	fc                   	cld    
 2d0:	f3 aa                	rep stos %al,%es:(%edi)
  stosb(dst, c, n);
  return dst;
}
 2d2:	89 d0                	mov    %edx,%eax
 2d4:	5f                   	pop    %edi
 2d5:	5d                   	pop    %ebp
 2d6:	c3                   	ret    
 2d7:	89 f6                	mov    %esi,%esi
 2d9:	8d bc 27 00 00 00 00 	lea    0x0(%edi,%eiz,1),%edi

000002e0 <strchr>:

char*
strchr(const char *s, char c)
{
 2e0:	55                   	push   %ebp
 2e1:	89 e5                	mov    %esp,%ebp
 2e3:	53                   	push   %ebx
 2e4:	8b 45 08             	mov    0x8(%ebp),%eax
 2e7:	8b 5d 0c             	mov    0xc(%ebp),%ebx
  for(; *s; s++)
 2ea:	0f b6 10             	movzbl (%eax),%edx
 2ed:	84 d2                	test   %dl,%dl
 2ef:	74 1d                	je     30e <strchr+0x2e>
    if(*s == c)
 2f1:	38 d3                	cmp    %dl,%bl
 2f3:	89 d9                	mov    %ebx,%ecx
 2f5:	75 0d                	jne    304 <strchr+0x24>
 2f7:	eb 17                	jmp    310 <strchr+0x30>
 2f9:	8d b4 26 00 00 00 00 	lea    0x0(%esi,%eiz,1),%esi
 300:	38 ca                	cmp    %cl,%dl
 302:	74 0c                	je     310 <strchr+0x30>
  for(; *s; s++)
 304:	83 c0 01             	add    $0x1,%eax
 307:	0f b6 10             	movzbl (%eax),%edx
 30a:	84 d2                	test   %dl,%dl
 30c:	75 f2                	jne    300 <strchr+0x20>
      return (char*)s;
  return 0;
 30e:	31 c0                	xor    %eax,%eax
}
 310:	5b                   	pop    %ebx
 311:	5d                   	pop    %ebp
 312:	c3                   	ret    
 313:	8d b6 00 00 00 00    	lea    0x0(%esi),%esi
 319:	8d bc 27 00 00 00 00 	lea    0x0(%edi,%eiz,1),%edi

00000320 <gets>:

char*
gets(char *buf, int max)
{
 320:	55                   	push   %ebp
 321:	89 e5                	mov    %esp,%ebp
 323:	57                   	push   %edi
 324:	56                   	push   %esi
 325:	53                   	push   %ebx
  int i, cc;
  char c;

  for(i=0; i+1 < max; ){
 326:	31 f6                	xor    %esi,%esi
 328:	89 f3                	mov    %esi,%ebx
{
 32a:	83 ec 1c             	sub    $0x1c,%esp
 32d:	8b 7d 08             	mov    0x8(%ebp),%edi
  for(i=0; i+1 < max; ){
 330:	eb 2f                	jmp    361 <gets+0x41>
 332:	8d b6 00 00 00 00    	lea    0x0(%esi),%esi
    cc = read(0, &c, 1);
 338:	8d 45 e7             	lea    -0x19(%ebp),%eax
 33b:	83 ec 04             	sub    $0x4,%esp
 33e:	6a 01                	push   $0x1
 340:	50                   	push   %eax
 341:	6a 00                	push   $0x0
 343:	e8 32 01 00 00       	call   47a <read>
    if(cc < 1)
 348:	83 c4 10             	add    $0x10,%esp
 34b:	85 c0                	test   %eax,%eax
 34d:	7e 1c                	jle    36b <gets+0x4b>
      break;
    buf[i++] = c;
 34f:	0f b6 45 e7          	movzbl -0x19(%ebp),%eax
 353:	83 c7 01             	add    $0x1,%edi
 356:	88 47 ff             	mov    %al,-0x1(%edi)
    if(c == '\n' || c == '\r')
 359:	3c 0a                	cmp    $0xa,%al
 35b:	74 23                	je     380 <gets+0x60>
 35d:	3c 0d                	cmp    $0xd,%al
 35f:	74 1f                	je     380 <gets+0x60>
  for(i=0; i+1 < max; ){
 361:	83 c3 01             	add    $0x1,%ebx
 364:	3b 5d 0c             	cmp    0xc(%ebp),%ebx
 367:	89 fe                	mov    %edi,%esi
 369:	7c cd                	jl     338 <gets+0x18>
 36b:	89 f3                	mov    %esi,%ebx
      break;
  }
  buf[i] = '\0';
  return buf;
}
 36d:	8b 45 08             	mov    0x8(%ebp),%eax
  buf[i] = '\0';
 370:	c6 03 00             	movb   $0x0,(%ebx)
}
 373:	8d 65 f4             	lea    -0xc(%ebp),%esp
 376:	5b                   	pop    %ebx
 377:	5e                   	pop    %esi
 378:	5f                   	pop    %edi
 379:	5d                   	pop    %ebp
 37a:	c3                   	ret    
 37b:	90                   	nop
 37c:	8d 74 26 00          	lea    0x0(%esi,%eiz,1),%esi
 380:	8b 75 08             	mov    0x8(%ebp),%esi
 383:	8b 45 08             	mov    0x8(%ebp),%eax
 386:	01 de                	add    %ebx,%esi
 388:	89 f3                	mov    %esi,%ebx
  buf[i] = '\0';
 38a:	c6 03 00             	movb   $0x0,(%ebx)
}
 38d:	8d 65 f4             	lea    -0xc(%ebp),%esp
 390:	5b                   	pop    %ebx
 391:	5e                   	pop    %esi
 392:	5f                   	pop    %edi
 393:	5d                   	pop    %ebp
 394:	c3                   	ret    
 395:	8d 74 26 00          	lea    0x0(%esi,%eiz,1),%esi
 399:	8d bc 27 00 00 00 00 	lea    0x0(%edi,%eiz,1),%edi

000003a0 <stat>:

int
stat(const char *n, struct stat *st)
{
 3a0:	55                   	push   %ebp
 3a1:	89 e5                	mov    %esp,%ebp
 3a3:	56                   	push   %esi
 3a4:	53                   	push   %ebx
  int fd;
  int r;

  fd = open(n, O_RDONLY);
 3a5:	83 ec 08             	sub    $0x8,%esp
 3a8:	6a 00                	push   $0x0
 3aa:	ff 75 08             	pushl  0x8(%ebp)
 3ad:	e8 f0 00 00 00       	call   4a2 <open>
  if(fd < 0)
 3b2:	83 c4 10             	add    $0x10,%esp
 3b5:	85 c0                	test   %eax,%eax
 3b7:	78 27                	js     3e0 <stat+0x40>
    return -1;
  r = fstat(fd, st);
 3b9:	83 ec 08             	sub    $0x8,%esp
 3bc:	ff 75 0c             	pushl  0xc(%ebp)
 3bf:	89 c3                	mov    %eax,%ebx
 3c1:	50                   	push   %eax
 3c2:	e8 f3 00 00 00       	call   4ba <fstat>
  close(fd);
 3c7:	89 1c 24             	mov    %ebx,(%esp)
  r = fstat(fd, st);
 3ca:	89 c6                	mov    %eax,%esi
  close(fd);
 3cc:	e8 b9 00 00 00       	call   48a <close>
  return r;
 3d1:	83 c4 10             	add    $0x10,%esp
}
 3d4:	8d 65 f8             	lea    -0x8(%ebp),%esp
 3d7:	89 f0                	mov    %esi,%eax
 3d9:	5b                   	pop    %ebx
 3da:	5e                   	pop    %esi
 3db:	5d                   	pop    %ebp
 3dc:	c3                   	ret    
 3dd:	8d 76 00             	lea    0x0(%esi),%esi
    return -1;
 3e0:	be ff ff ff ff       	mov    $0xffffffff,%esi
 3e5:	eb ed                	jmp    3d4 <stat+0x34>
 3e7:	89 f6                	mov    %esi,%esi
 3e9:	8d bc 27 00 00 00 00 	lea    0x0(%edi,%eiz,1),%edi

000003f0 <atoi>:

int
atoi(const char *s)
{
 3f0:	55                   	push   %ebp
 3f1:	89 e5                	mov    %esp,%ebp
 3f3:	53                   	push   %ebx
 3f4:	8b 4d 08             	mov    0x8(%ebp),%ecx
  int n;

  n = 0;
  while('0' <= *s && *s <= '9')
 3f7:	0f be 11             	movsbl (%ecx),%edx
 3fa:	8d 42 d0             	lea    -0x30(%edx),%eax
 3fd:	3c 09                	cmp    $0x9,%al
  n = 0;
 3ff:	b8 00 00 00 00       	mov    $0x0,%eax
  while('0' <= *s && *s <= '9')
 404:	77 1f                	ja     425 <atoi+0x35>
 406:	8d 76 00             	lea    0x0(%esi),%esi
 409:	8d bc 27 00 00 00 00 	lea    0x0(%edi,%eiz,1),%edi
    n = n*10 + *s++ - '0';
 410:	8d 04 80             	lea    (%eax,%eax,4),%eax
 413:	83 c1 01             	add    $0x1,%ecx
 416:	8d 44 42 d0          	lea    -0x30(%edx,%eax,2),%eax
  while('0' <= *s && *s <= '9')
 41a:	0f be 11             	movsbl (%ecx),%edx
 41d:	8d 5a d0             	lea    -0x30(%edx),%ebx
 420:	80 fb 09             	cmp    $0x9,%bl
 423:	76 eb                	jbe    410 <atoi+0x20>
  return n;
}
 425:	5b                   	pop    %ebx
 426:	5d                   	pop    %ebp
 427:	c3                   	ret    
 428:	90                   	nop
 429:	8d b4 26 00 00 00 00 	lea    0x0(%esi,%eiz,1),%esi

00000430 <memmove>:

void*
memmove(void *vdst, const void *vsrc, int n)
{
 430:	55                   	push   %ebp
 431:	89 e5                	mov    %esp,%ebp
 433:	56                   	push   %esi
 434:	53                   	push   %ebx
 435:	8b 5d 10             	mov    0x10(%ebp),%ebx
 438:	8b 45 08             	mov    0x8(%ebp),%eax
 43b:	8b 75 0c             	mov    0xc(%ebp),%esi
  char *dst;
  const char *src;

  dst = vdst;
  src = vsrc;
  while(n-- > 0)
 43e:	85 db                	test   %ebx,%ebx
 440:	7e 14                	jle    456 <memmove+0x26>
 442:	31 d2                	xor    %edx,%edx
 444:	8d 74 26 00          	lea    0x0(%esi,%eiz,1),%esi
    *dst++ = *src++;
 448:	0f b6 0c 16          	movzbl (%esi,%edx,1),%ecx
 44c:	88 0c 10             	mov    %cl,(%eax,%edx,1)
 44f:	83 c2 01             	add    $0x1,%edx
  while(n-- > 0)
 452:	39 d3                	cmp    %edx,%ebx
 454:	75 f2                	jne    448 <memmove+0x18>
  return vdst;
}
 456:	5b                   	pop    %ebx
 457:	5e                   	pop    %esi
 458:	5d                   	pop    %ebp
 459:	c3                   	ret    

0000045a <fork>:
  name: \
    movl $SYS_ ## name, %eax; \
    int $T_SYSCALL; \
    ret

SYSCALL(fork)
 45a:	b8 01 00 00 00       	mov    $0x1,%eax
 45f:	cd 40                	int    $0x40
 461:	c3                   	ret    

00000462 <exit>:
SYSCALL(exit)
 462:	b8 02 00 00 00       	mov    $0x2,%eax
 467:	cd 40                	int    $0x40
 469:	c3                   	ret    

0000046a <wait>:
SYSCALL(wait)
 46a:	b8 03 00 00 00       	mov    $0x3,%eax
 46f:	cd 40                	int    $0x40
 471:	c3                   	ret    

00000472 <pipe>:
SYSCALL(pipe)
 472:	b8 04 00 00 00       	mov    $0x4,%eax
 477:	cd 40                	int    $0x40
 479:	c3                   	ret    

0000047a <read>:
SYSCALL(read)
 47a:	b8 05 00 00 00       	mov    $0x5,%eax
 47f:	cd 40                	int    $0x40
 481:	c3                   	ret    

00000482 <write>:
SYSCALL(write)
 482:	b8 10 00 00 00       	mov    $0x10,%eax
 487:	cd 40                	int    $0x40
 489:	c3                   	ret    

0000048a <close>:
SYSCALL(close)
 48a:	b8 15 00 00 00       	mov    $0x15,%eax
 48f:	cd 40                	int    $0x40
 491:	c3                   	ret    

00000492 <kill>:
SYSCALL(kill)
 492:	b8 06 00 00 00       	mov    $0x6,%eax
 497:	cd 40                	int    $0x40
 499:	c3                   	ret    

0000049a <exec>:
SYSCALL(exec)
 49a:	b8 07 00 00 00       	mov    $0x7,%eax
 49f:	cd 40                	int    $0x40
 4a1:	c3                   	ret    

000004a2 <open>:
SYSCALL(open)
 4a2:	b8 0f 00 00 00       	mov    $0xf,%eax
 4a7:	cd 40                	int    $0x40
 4a9:	c3                   	ret    

000004aa <mknod>:
SYSCALL(mknod)
 4aa:	b8 11 00 00 00       	mov    $0x11,%eax
 4af:	cd 40                	int    $0x40
 4b1:	c3                   	ret    

000004b2 <unlink>:
SYSCALL(unlink)
 4b2:	b8 12 00 00 00       	mov    $0x12,%eax
 4b7:	cd 40                	int    $0x40
 4b9:	c3                   	ret    

000004ba <fstat>:
SYSCALL(fstat)
 4ba:	b8 08 00 00 00       	mov    $0x8,%eax
 4bf:	cd 40                	int    $0x40
 4c1:	c3                   	ret    

000004c2 <link>:
SYSCALL(link)
 4c2:	b8 13 00 00 00       	mov    $0x13,%eax
 4c7:	cd 40                	int    $0x40
 4c9:	c3                   	ret    

000004ca <mkdir>:
SYSCALL(mkdir)
 4ca:	b8 14 00 00 00       	mov    $0x14,%eax
 4cf:	cd 40                	int    $0x40
 4d1:	c3                   	ret    

000004d2 <chdir>:
SYSCALL(chdir)
 4d2:	b8 09 00 00 00       	mov    $0x9,%eax
 4d7:	cd 40                	int    $0x40
 4d9:	c3                   	ret    

000004da <dup>:
SYSCALL(dup)
 4da:	b8 0a 00 00 00       	mov    $0xa,%eax
 4df:	cd 40                	int    $0x40
 4e1:	c3                   	ret    

000004e2 <getpid>:
SYSCALL(getpid)
 4e2:	b8 0b 00 00 00       	mov    $0xb,%eax
 4e7:	cd 40                	int    $0x40
 4e9:	c3                   	ret    

000004ea <sbrk>:
SYSCALL(sbrk)
 4ea:	b8 0c 00 00 00       	mov    $0xc,%eax
 4ef:	cd 40                	int    $0x40
 4f1:	c3                   	ret    

000004f2 <sleep>:
SYSCALL(sleep)
 4f2:	b8 0d 00 00 00       	mov    $0xd,%eax
 4f7:	cd 40                	int    $0x40
 4f9:	c3                   	ret    

000004fa <uptime>:
SYSCALL(uptime)
 4fa:	b8 0e 00 00 00       	mov    $0xe,%eax
 4ff:	cd 40                	int    $0x40
 501:	c3                   	ret    

00000502 <hello>:
SYSCALL(hello)
 502:	b8 16 00 00 00       	mov    $0x16,%eax
 507:	cd 40                	int    $0x40
 509:	c3                   	ret    

0000050a <hello_name>:
SYSCALL(hello_name)
 50a:	b8 17 00 00 00       	mov    $0x17,%eax
 50f:	cd 40                	int    $0x40
 511:	c3                   	ret    

00000512 <get_num_proc>:
SYSCALL(get_num_proc)
 512:	b8 18 00 00 00       	mov    $0x18,%eax
 517:	cd 40                	int    $0x40
 519:	c3                   	ret    

0000051a <get_max_pid>:
SYSCALL(get_max_pid)
 51a:	b8 19 00 00 00       	mov    $0x19,%eax
 51f:	cd 40                	int    $0x40
 521:	c3                   	ret    

00000522 <get_proc_info>:
SYSCALL(get_proc_info)
 522:	b8 1a 00 00 00       	mov    $0x1a,%eax
 527:	cd 40                	int    $0x40
 529:	c3                   	ret    

0000052a <set_prio>:
SYSCALL(set_prio)
 52a:	b8 1b 00 00 00       	mov    $0x1b,%eax
 52f:	cd 40                	int    $0x40
 531:	c3                   	ret    

00000532 <get_prio>:
SYSCALL(get_prio)
 532:	b8 1c 00 00 00       	mov    $0x1c,%eax
 537:	cd 40                	int    $0x40
 539:	c3                   	ret    
 53a:	66 90                	xchg   %ax,%ax
 53c:	66 90                	xchg   %ax,%ax
 53e:	66 90                	xchg   %ax,%ax

00000540 <printint>:
  write(fd, &c, 1);
}

static void
printint(int fd, int xx, int base, int sgn)
{
 540:	55                   	push   %ebp
 541:	89 e5                	mov    %esp,%ebp
 543:	57                   	push   %edi
 544:	56                   	push   %esi
 545:	53                   	push   %ebx
 546:	83 ec 3c             	sub    $0x3c,%esp
  char buf[16];
  int i, neg;
  uint x;

  neg = 0;
  if(sgn && xx < 0){
 549:	85 d2                	test   %edx,%edx
{
 54b:	89 45 c0             	mov    %eax,-0x40(%ebp)
    neg = 1;
    x = -xx;
 54e:	89 d0                	mov    %edx,%eax
  if(sgn && xx < 0){
 550:	79 76                	jns    5c8 <printint+0x88>
 552:	f6 45 08 01          	testb  $0x1,0x8(%ebp)
 556:	74 70                	je     5c8 <printint+0x88>
    x = -xx;
 558:	f7 d8                	neg    %eax
    neg = 1;
 55a:	c7 45 c4 01 00 00 00 	movl   $0x1,-0x3c(%ebp)
  } else {
    x = xx;
  }

  i = 0;
 561:	31 f6                	xor    %esi,%esi
 563:	8d 5d d7             	lea    -0x29(%ebp),%ebx
 566:	eb 0a                	jmp    572 <printint+0x32>
 568:	90                   	nop
 569:	8d b4 26 00 00 00 00 	lea    0x0(%esi,%eiz,1),%esi
  do{
    buf[i++] = digits[x % base];
 570:	89 fe                	mov    %edi,%esi
 572:	31 d2                	xor    %edx,%edx
 574:	8d 7e 01             	lea    0x1(%esi),%edi
 577:	f7 f1                	div    %ecx
 579:	0f b6 92 ec 09 00 00 	movzbl 0x9ec(%edx),%edx
  }while((x /= base) != 0);
 580:	85 c0                	test   %eax,%eax
    buf[i++] = digits[x % base];
 582:	88 14 3b             	mov    %dl,(%ebx,%edi,1)
  }while((x /= base) != 0);
 585:	75 e9                	jne    570 <printint+0x30>
  if(neg)
 587:	8b 45 c4             	mov    -0x3c(%ebp),%eax
 58a:	85 c0                	test   %eax,%eax
 58c:	74 08                	je     596 <printint+0x56>
    buf[i++] = '-';
 58e:	c6 44 3d d8 2d       	movb   $0x2d,-0x28(%ebp,%edi,1)
 593:	8d 7e 02             	lea    0x2(%esi),%edi
 596:	8d 74 3d d7          	lea    -0x29(%ebp,%edi,1),%esi
 59a:	8b 7d c0             	mov    -0x40(%ebp),%edi
 59d:	8d 76 00             	lea    0x0(%esi),%esi
 5a0:	0f b6 06             	movzbl (%esi),%eax
  write(fd, &c, 1);
 5a3:	83 ec 04             	sub    $0x4,%esp
 5a6:	83 ee 01             	sub    $0x1,%esi
 5a9:	6a 01                	push   $0x1
 5ab:	53                   	push   %ebx
 5ac:	57                   	push   %edi
 5ad:	88 45 d7             	mov    %al,-0x29(%ebp)
 5b0:	e8 cd fe ff ff       	call   482 <write>

  while(--i >= 0)
 5b5:	83 c4 10             	add    $0x10,%esp
 5b8:	39 de                	cmp    %ebx,%esi
 5ba:	75 e4                	jne    5a0 <printint+0x60>
    putc(fd, buf[i]);
}
 5bc:	8d 65 f4             	lea    -0xc(%ebp),%esp
 5bf:	5b                   	pop    %ebx
 5c0:	5e                   	pop    %esi
 5c1:	5f                   	pop    %edi
 5c2:	5d                   	pop    %ebp
 5c3:	c3                   	ret    
 5c4:	8d 74 26 00          	lea    0x0(%esi,%eiz,1),%esi
  neg = 0;
 5c8:	c7 45 c4 00 00 00 00 	movl   $0x0,-0x3c(%ebp)
 5cf:	eb 90                	jmp    561 <printint+0x21>
 5d1:	eb 0d                	jmp    5e0 <printf>
 5d3:	90                   	nop
 5d4:	90                   	nop
 5d5:	90                   	nop
 5d6:	90                   	nop
 5d7:	90                   	nop
 5d8:	90                   	nop
 5d9:	90                   	nop
 5da:	90                   	nop
 5db:	90                   	nop
 5dc:	90                   	nop
 5dd:	90                   	nop
 5de:	90                   	nop
 5df:	90                   	nop

000005e0 <printf>:

// Print to the given fd. Only understands %d, %x, %p, %s.
void
printf(int fd, const char *fmt, ...)
{
 5e0:	55                   	push   %ebp
 5e1:	89 e5                	mov    %esp,%ebp
 5e3:	57                   	push   %edi
 5e4:	56                   	push   %esi
 5e5:	53                   	push   %ebx
 5e6:	83 ec 2c             	sub    $0x2c,%esp
  int c, i, state;
  uint *ap;

  state = 0;
  ap = (uint*)(void*)&fmt + 1;
  for(i = 0; fmt[i]; i++){
 5e9:	8b 75 0c             	mov    0xc(%ebp),%esi
 5ec:	0f b6 1e             	movzbl (%esi),%ebx
 5ef:	84 db                	test   %bl,%bl
 5f1:	0f 84 b3 00 00 00    	je     6aa <printf+0xca>
  ap = (uint*)(void*)&fmt + 1;
 5f7:	8d 45 10             	lea    0x10(%ebp),%eax
 5fa:	83 c6 01             	add    $0x1,%esi
  state = 0;
 5fd:	31 ff                	xor    %edi,%edi
  ap = (uint*)(void*)&fmt + 1;
 5ff:	89 45 d4             	mov    %eax,-0x2c(%ebp)
 602:	eb 2f                	jmp    633 <printf+0x53>
 604:	8d 74 26 00          	lea    0x0(%esi,%eiz,1),%esi
    c = fmt[i] & 0xff;
    if(state == 0){
      if(c == '%'){
 608:	83 f8 25             	cmp    $0x25,%eax
 60b:	0f 84 a7 00 00 00    	je     6b8 <printf+0xd8>
  write(fd, &c, 1);
 611:	8d 45 e2             	lea    -0x1e(%ebp),%eax
 614:	83 ec 04             	sub    $0x4,%esp
 617:	88 5d e2             	mov    %bl,-0x1e(%ebp)
 61a:	6a 01                	push   $0x1
 61c:	50                   	push   %eax
 61d:	ff 75 08             	pushl  0x8(%ebp)
 620:	e8 5d fe ff ff       	call   482 <write>
 625:	83 c4 10             	add    $0x10,%esp
 628:	83 c6 01             	add    $0x1,%esi
  for(i = 0; fmt[i]; i++){
 62b:	0f b6 5e ff          	movzbl -0x1(%esi),%ebx
 62f:	84 db                	test   %bl,%bl
 631:	74 77                	je     6aa <printf+0xca>
    if(state == 0){
 633:	85 ff                	test   %edi,%edi
    c = fmt[i] & 0xff;
 635:	0f be cb             	movsbl %bl,%ecx
 638:	0f b6 c3             	movzbl %bl,%eax
    if(state == 0){
 63b:	74 cb                	je     608 <printf+0x28>
        state = '%';
      } else {
        putc(fd, c);
      }
    } else if(state == '%'){
 63d:	83 ff 25             	cmp    $0x25,%edi
 640:	75 e6                	jne    628 <printf+0x48>
      if(c == 'd'){
 642:	83 f8 64             	cmp    $0x64,%eax
 645:	0f 84 05 01 00 00    	je     750 <printf+0x170>
        printint(fd, *ap, 10, 1);
        ap++;
      } else if(c == 'x' || c == 'p'){
 64b:	81 e1 f7 00 00 00    	and    $0xf7,%ecx
 651:	83 f9 70             	cmp    $0x70,%ecx
 654:	74 72                	je     6c8 <printf+0xe8>
        printint(fd, *ap, 16, 0);
        ap++;
      } else if(c == 's'){
 656:	83 f8 73             	cmp    $0x73,%eax
 659:	0f 84 99 00 00 00    	je     6f8 <printf+0x118>
          s = "(null)";
        while(*s != 0){
          putc(fd, *s);
          s++;
        }
      } else if(c == 'c'){
 65f:	83 f8 63             	cmp    $0x63,%eax
 662:	0f 84 08 01 00 00    	je     770 <printf+0x190>
        putc(fd, *ap);
        ap++;
      } else if(c == '%'){
 668:	83 f8 25             	cmp    $0x25,%eax
 66b:	0f 84 ef 00 00 00    	je     760 <printf+0x180>
  write(fd, &c, 1);
 671:	8d 45 e7             	lea    -0x19(%ebp),%eax
 674:	83 ec 04             	sub    $0x4,%esp
 677:	c6 45 e7 25          	movb   $0x25,-0x19(%ebp)
 67b:	6a 01                	push   $0x1
 67d:	50                   	push   %eax
 67e:	ff 75 08             	pushl  0x8(%ebp)
 681:	e8 fc fd ff ff       	call   482 <write>
 686:	83 c4 0c             	add    $0xc,%esp
 689:	8d 45 e6             	lea    -0x1a(%ebp),%eax
 68c:	88 5d e6             	mov    %bl,-0x1a(%ebp)
 68f:	6a 01                	push   $0x1
 691:	50                   	push   %eax
 692:	ff 75 08             	pushl  0x8(%ebp)
 695:	83 c6 01             	add    $0x1,%esi
      } else {
        // Unknown % sequence.  Print it to draw attention.
        putc(fd, '%');
        putc(fd, c);
      }
      state = 0;
 698:	31 ff                	xor    %edi,%edi
  write(fd, &c, 1);
 69a:	e8 e3 fd ff ff       	call   482 <write>
  for(i = 0; fmt[i]; i++){
 69f:	0f b6 5e ff          	movzbl -0x1(%esi),%ebx
  write(fd, &c, 1);
 6a3:	83 c4 10             	add    $0x10,%esp
  for(i = 0; fmt[i]; i++){
 6a6:	84 db                	test   %bl,%bl
 6a8:	75 89                	jne    633 <printf+0x53>
    }
  }
}
 6aa:	8d 65 f4             	lea    -0xc(%ebp),%esp
 6ad:	5b                   	pop    %ebx
 6ae:	5e                   	pop    %esi
 6af:	5f                   	pop    %edi
 6b0:	5d                   	pop    %ebp
 6b1:	c3                   	ret    
 6b2:	8d b6 00 00 00 00    	lea    0x0(%esi),%esi
        state = '%';
 6b8:	bf 25 00 00 00       	mov    $0x25,%edi
 6bd:	e9 66 ff ff ff       	jmp    628 <printf+0x48>
 6c2:	8d b6 00 00 00 00    	lea    0x0(%esi),%esi
        printint(fd, *ap, 16, 0);
 6c8:	83 ec 0c             	sub    $0xc,%esp
 6cb:	b9 10 00 00 00       	mov    $0x10,%ecx
 6d0:	6a 00                	push   $0x0
 6d2:	8b 7d d4             	mov    -0x2c(%ebp),%edi
 6d5:	8b 45 08             	mov    0x8(%ebp),%eax
 6d8:	8b 17                	mov    (%edi),%edx
 6da:	e8 61 fe ff ff       	call   540 <printint>
        ap++;
 6df:	89 f8                	mov    %edi,%eax
 6e1:	83 c4 10             	add    $0x10,%esp
      state = 0;
 6e4:	31 ff                	xor    %edi,%edi
        ap++;
 6e6:	83 c0 04             	add    $0x4,%eax
 6e9:	89 45 d4             	mov    %eax,-0x2c(%ebp)
 6ec:	e9 37 ff ff ff       	jmp    628 <printf+0x48>
 6f1:	8d b4 26 00 00 00 00 	lea    0x0(%esi,%eiz,1),%esi
        s = (char*)*ap;
 6f8:	8b 45 d4             	mov    -0x2c(%ebp),%eax
 6fb:	8b 08                	mov    (%eax),%ecx
        ap++;
 6fd:	83 c0 04             	add    $0x4,%eax
 700:	89 45 d4             	mov    %eax,-0x2c(%ebp)
        if(s == 0)
 703:	85 c9                	test   %ecx,%ecx
 705:	0f 84 8e 00 00 00    	je     799 <printf+0x1b9>
        while(*s != 0){
 70b:	0f b6 01             	movzbl (%ecx),%eax
      state = 0;
 70e:	31 ff                	xor    %edi,%edi
        s = (char*)*ap;
 710:	89 cb                	mov    %ecx,%ebx
        while(*s != 0){
 712:	84 c0                	test   %al,%al
 714:	0f 84 0e ff ff ff    	je     628 <printf+0x48>
 71a:	89 75 d0             	mov    %esi,-0x30(%ebp)
 71d:	89 de                	mov    %ebx,%esi
 71f:	8b 5d 08             	mov    0x8(%ebp),%ebx
 722:	8d 7d e3             	lea    -0x1d(%ebp),%edi
 725:	8d 76 00             	lea    0x0(%esi),%esi
  write(fd, &c, 1);
 728:	83 ec 04             	sub    $0x4,%esp
          s++;
 72b:	83 c6 01             	add    $0x1,%esi
 72e:	88 45 e3             	mov    %al,-0x1d(%ebp)
  write(fd, &c, 1);
 731:	6a 01                	push   $0x1
 733:	57                   	push   %edi
 734:	53                   	push   %ebx
 735:	e8 48 fd ff ff       	call   482 <write>
        while(*s != 0){
 73a:	0f b6 06             	movzbl (%esi),%eax
 73d:	83 c4 10             	add    $0x10,%esp
 740:	84 c0                	test   %al,%al
 742:	75 e4                	jne    728 <printf+0x148>
 744:	8b 75 d0             	mov    -0x30(%ebp),%esi
      state = 0;
 747:	31 ff                	xor    %edi,%edi
 749:	e9 da fe ff ff       	jmp    628 <printf+0x48>
 74e:	66 90                	xchg   %ax,%ax
        printint(fd, *ap, 10, 1);
 750:	83 ec 0c             	sub    $0xc,%esp
 753:	b9 0a 00 00 00       	mov    $0xa,%ecx
 758:	6a 01                	push   $0x1
 75a:	e9 73 ff ff ff       	jmp    6d2 <printf+0xf2>
 75f:	90                   	nop
  write(fd, &c, 1);
 760:	83 ec 04             	sub    $0x4,%esp
 763:	88 5d e5             	mov    %bl,-0x1b(%ebp)
 766:	8d 45 e5             	lea    -0x1b(%ebp),%eax
 769:	6a 01                	push   $0x1
 76b:	e9 21 ff ff ff       	jmp    691 <printf+0xb1>
        putc(fd, *ap);
 770:	8b 7d d4             	mov    -0x2c(%ebp),%edi
  write(fd, &c, 1);
 773:	83 ec 04             	sub    $0x4,%esp
        putc(fd, *ap);
 776:	8b 07                	mov    (%edi),%eax
  write(fd, &c, 1);
 778:	6a 01                	push   $0x1
        ap++;
 77a:	83 c7 04             	add    $0x4,%edi
        putc(fd, *ap);
 77d:	88 45 e4             	mov    %al,-0x1c(%ebp)
  write(fd, &c, 1);
 780:	8d 45 e4             	lea    -0x1c(%ebp),%eax
 783:	50                   	push   %eax
 784:	ff 75 08             	pushl  0x8(%ebp)
 787:	e8 f6 fc ff ff       	call   482 <write>
        ap++;
 78c:	89 7d d4             	mov    %edi,-0x2c(%ebp)
 78f:	83 c4 10             	add    $0x10,%esp
      state = 0;
 792:	31 ff                	xor    %edi,%edi
 794:	e9 8f fe ff ff       	jmp    628 <printf+0x48>
          s = "(null)";
 799:	bb e4 09 00 00       	mov    $0x9e4,%ebx
        while(*s != 0){
 79e:	b8 28 00 00 00       	mov    $0x28,%eax
 7a3:	e9 72 ff ff ff       	jmp    71a <printf+0x13a>
 7a8:	66 90                	xchg   %ax,%ax
 7aa:	66 90                	xchg   %ax,%ax
 7ac:	66 90                	xchg   %ax,%ax
 7ae:	66 90                	xchg   %ax,%ax

000007b0 <free>:
static Header base;
static Header *freep;

void
free(void *ap)
{
 7b0:	55                   	push   %ebp
  Header *bp, *p;

  bp = (Header*)ap - 1;
  for(p = freep; !(bp > p && bp < p->s.ptr); p = p->s.ptr)
 7b1:	a1 c8 0c 00 00       	mov    0xcc8,%eax
{
 7b6:	89 e5                	mov    %esp,%ebp
 7b8:	57                   	push   %edi
 7b9:	56                   	push   %esi
 7ba:	53                   	push   %ebx
 7bb:	8b 5d 08             	mov    0x8(%ebp),%ebx
  bp = (Header*)ap - 1;
 7be:	8d 4b f8             	lea    -0x8(%ebx),%ecx
 7c1:	8d b4 26 00 00 00 00 	lea    0x0(%esi,%eiz,1),%esi
  for(p = freep; !(bp > p && bp < p->s.ptr); p = p->s.ptr)
 7c8:	39 c8                	cmp    %ecx,%eax
 7ca:	8b 10                	mov    (%eax),%edx
 7cc:	73 32                	jae    800 <free+0x50>
 7ce:	39 d1                	cmp    %edx,%ecx
 7d0:	72 04                	jb     7d6 <free+0x26>
    if(p >= p->s.ptr && (bp > p || bp < p->s.ptr))
 7d2:	39 d0                	cmp    %edx,%eax
 7d4:	72 32                	jb     808 <free+0x58>
      break;
  if(bp + bp->s.size == p->s.ptr){
 7d6:	8b 73 fc             	mov    -0x4(%ebx),%esi
 7d9:	8d 3c f1             	lea    (%ecx,%esi,8),%edi
 7dc:	39 fa                	cmp    %edi,%edx
 7de:	74 30                	je     810 <free+0x60>
    bp->s.size += p->s.ptr->s.size;
    bp->s.ptr = p->s.ptr->s.ptr;
  } else
    bp->s.ptr = p->s.ptr;
 7e0:	89 53 f8             	mov    %edx,-0x8(%ebx)
  if(p + p->s.size == bp){
 7e3:	8b 50 04             	mov    0x4(%eax),%edx
 7e6:	8d 34 d0             	lea    (%eax,%edx,8),%esi
 7e9:	39 f1                	cmp    %esi,%ecx
 7eb:	74 3a                	je     827 <free+0x77>
    p->s.size += bp->s.size;
    p->s.ptr = bp->s.ptr;
  } else
    p->s.ptr = bp;
 7ed:	89 08                	mov    %ecx,(%eax)
  freep = p;
 7ef:	a3 c8 0c 00 00       	mov    %eax,0xcc8
}
 7f4:	5b                   	pop    %ebx
 7f5:	5e                   	pop    %esi
 7f6:	5f                   	pop    %edi
 7f7:	5d                   	pop    %ebp
 7f8:	c3                   	ret    
 7f9:	8d b4 26 00 00 00 00 	lea    0x0(%esi,%eiz,1),%esi
    if(p >= p->s.ptr && (bp > p || bp < p->s.ptr))
 800:	39 d0                	cmp    %edx,%eax
 802:	72 04                	jb     808 <free+0x58>
 804:	39 d1                	cmp    %edx,%ecx
 806:	72 ce                	jb     7d6 <free+0x26>
{
 808:	89 d0                	mov    %edx,%eax
 80a:	eb bc                	jmp    7c8 <free+0x18>
 80c:	8d 74 26 00          	lea    0x0(%esi,%eiz,1),%esi
    bp->s.size += p->s.ptr->s.size;
 810:	03 72 04             	add    0x4(%edx),%esi
 813:	89 73 fc             	mov    %esi,-0x4(%ebx)
    bp->s.ptr = p->s.ptr->s.ptr;
 816:	8b 10                	mov    (%eax),%edx
 818:	8b 12                	mov    (%edx),%edx
 81a:	89 53 f8             	mov    %edx,-0x8(%ebx)
  if(p + p->s.size == bp){
 81d:	8b 50 04             	mov    0x4(%eax),%edx
 820:	8d 34 d0             	lea    (%eax,%edx,8),%esi
 823:	39 f1                	cmp    %esi,%ecx
 825:	75 c6                	jne    7ed <free+0x3d>
    p->s.size += bp->s.size;
 827:	03 53 fc             	add    -0x4(%ebx),%edx
  freep = p;
 82a:	a3 c8 0c 00 00       	mov    %eax,0xcc8
    p->s.size += bp->s.size;
 82f:	89 50 04             	mov    %edx,0x4(%eax)
    p->s.ptr = bp->s.ptr;
 832:	8b 53 f8             	mov    -0x8(%ebx),%edx
 835:	89 10                	mov    %edx,(%eax)
}
 837:	5b                   	pop    %ebx
 838:	5e                   	pop    %esi
 839:	5f                   	pop    %edi
 83a:	5d                   	pop    %ebp
 83b:	c3                   	ret    
 83c:	8d 74 26 00          	lea    0x0(%esi,%eiz,1),%esi

00000840 <malloc>:
  return freep;
}

void*
malloc(uint nbytes)
{
 840:	55                   	push   %ebp
 841:	89 e5                	mov    %esp,%ebp
 843:	57                   	push   %edi
 844:	56                   	push   %esi
 845:	53                   	push   %ebx
 846:	83 ec 0c             	sub    $0xc,%esp
  Header *p, *prevp;
  uint nunits;

  nunits = (nbytes + sizeof(Header) - 1)/sizeof(Header) + 1;
 849:	8b 45 08             	mov    0x8(%ebp),%eax
  if((prevp = freep) == 0){
 84c:	8b 15 c8 0c 00 00    	mov    0xcc8,%edx
  nunits = (nbytes + sizeof(Header) - 1)/sizeof(Header) + 1;
 852:	8d 78 07             	lea    0x7(%eax),%edi
 855:	c1 ef 03             	shr    $0x3,%edi
 858:	83 c7 01             	add    $0x1,%edi
  if((prevp = freep) == 0){
 85b:	85 d2                	test   %edx,%edx
 85d:	0f 84 9d 00 00 00    	je     900 <malloc+0xc0>
 863:	8b 02                	mov    (%edx),%eax
 865:	8b 48 04             	mov    0x4(%eax),%ecx
    base.s.ptr = freep = prevp = &base;
    base.s.size = 0;
  }
  for(p = prevp->s.ptr; ; prevp = p, p = p->s.ptr){
    if(p->s.size >= nunits){
 868:	39 cf                	cmp    %ecx,%edi
 86a:	76 6c                	jbe    8d8 <malloc+0x98>
 86c:	81 ff 00 10 00 00    	cmp    $0x1000,%edi
 872:	bb 00 10 00 00       	mov    $0x1000,%ebx
 877:	0f 43 df             	cmovae %edi,%ebx
  p = sbrk(nu * sizeof(Header));
 87a:	8d 34 dd 00 00 00 00 	lea    0x0(,%ebx,8),%esi
 881:	eb 0e                	jmp    891 <malloc+0x51>
 883:	90                   	nop
 884:	8d 74 26 00          	lea    0x0(%esi,%eiz,1),%esi
  for(p = prevp->s.ptr; ; prevp = p, p = p->s.ptr){
 888:	8b 02                	mov    (%edx),%eax
    if(p->s.size >= nunits){
 88a:	8b 48 04             	mov    0x4(%eax),%ecx
 88d:	39 f9                	cmp    %edi,%ecx
 88f:	73 47                	jae    8d8 <malloc+0x98>
        p->s.size = nunits;
      }
      freep = prevp;
      return (void*)(p + 1);
    }
    if(p == freep)
 891:	39 05 c8 0c 00 00    	cmp    %eax,0xcc8
 897:	89 c2                	mov    %eax,%edx
 899:	75 ed                	jne    888 <malloc+0x48>
  p = sbrk(nu * sizeof(Header));
 89b:	83 ec 0c             	sub    $0xc,%esp
 89e:	56                   	push   %esi
 89f:	e8 46 fc ff ff       	call   4ea <sbrk>
  if(p == (char*)-1)
 8a4:	83 c4 10             	add    $0x10,%esp
 8a7:	83 f8 ff             	cmp    $0xffffffff,%eax
 8aa:	74 1c                	je     8c8 <malloc+0x88>
  hp->s.size = nu;
 8ac:	89 58 04             	mov    %ebx,0x4(%eax)
  free((void*)(hp + 1));
 8af:	83 ec 0c             	sub    $0xc,%esp
 8b2:	83 c0 08             	add    $0x8,%eax
 8b5:	50                   	push   %eax
 8b6:	e8 f5 fe ff ff       	call   7b0 <free>
  return freep;
 8bb:	8b 15 c8 0c 00 00    	mov    0xcc8,%edx
      if((p = morecore(nunits)) == 0)
 8c1:	83 c4 10             	add    $0x10,%esp
 8c4:	85 d2                	test   %edx,%edx
 8c6:	75 c0                	jne    888 <malloc+0x48>
        return 0;
  }
}
 8c8:	8d 65 f4             	lea    -0xc(%ebp),%esp
        return 0;
 8cb:	31 c0                	xor    %eax,%eax
}
 8cd:	5b                   	pop    %ebx
 8ce:	5e                   	pop    %esi
 8cf:	5f                   	pop    %edi
 8d0:	5d                   	pop    %ebp
 8d1:	c3                   	ret    
 8d2:	8d b6 00 00 00 00    	lea    0x0(%esi),%esi
      if(p->s.size == nunits)
 8d8:	39 cf                	cmp    %ecx,%edi
 8da:	74 54                	je     930 <malloc+0xf0>
        p->s.size -= nunits;
 8dc:	29 f9                	sub    %edi,%ecx
 8de:	89 48 04             	mov    %ecx,0x4(%eax)
        p += p->s.size;
 8e1:	8d 04 c8             	lea    (%eax,%ecx,8),%eax
        p->s.size = nunits;
 8e4:	89 78 04             	mov    %edi,0x4(%eax)
      freep = prevp;
 8e7:	89 15 c8 0c 00 00    	mov    %edx,0xcc8
}
 8ed:	8d 65 f4             	lea    -0xc(%ebp),%esp
      return (void*)(p + 1);
 8f0:	83 c0 08             	add    $0x8,%eax
}
 8f3:	5b                   	pop    %ebx
 8f4:	5e                   	pop    %esi
 8f5:	5f                   	pop    %edi
 8f6:	5d                   	pop    %ebp
 8f7:	c3                   	ret    
 8f8:	90                   	nop
 8f9:	8d b4 26 00 00 00 00 	lea    0x0(%esi,%eiz,1),%esi
    base.s.ptr = freep = prevp = &base;
 900:	c7 05 c8 0c 00 00 cc 	movl   $0xccc,0xcc8
 907:	0c 00 00 
 90a:	c7 05 cc 0c 00 00 cc 	movl   $0xccc,0xccc
 911:	0c 00 00 
    base.s.size = 0;
 914:	b8 cc 0c 00 00       	mov    $0xccc,%eax
 919:	c7 05 d0 0c 00 00 00 	movl   $0x0,0xcd0
 920:	00 00 00 
 923:	e9 44 ff ff ff       	jmp    86c <malloc+0x2c>
 928:	90                   	nop
 929:	8d b4 26 00 00 00 00 	lea    0x0(%esi,%eiz,1),%esi
        prevp->s.ptr = p->s.ptr;
 930:	8b 08                	mov    (%eax),%ecx
 932:	89 0a                	mov    %ecx,(%edx)
 934:	eb b1                	jmp    8e7 <malloc+0xa7>
